; Function Attrs: nounwind uwtable
define ptr @l___private_Lean_Meta_Tactic_Grind_Arith_CommRing_Proof_0__Lean_Meta_Grind_Arith_CommRing_Null_getNoZeroDivInstIfNeeded_x3f___boxed(ptr noundef %0, ptr noundef %1, ptr noundef %2, ptr noundef %3, ptr noundef %4, ptr noundef %5, ptr noundef %6, ptr noundef %7, ptr noundef %8, ptr noundef %9, ptr noundef %10) local_unnamed_addr #1 {
  %12 = tail call ptr @l___private_Lean_Meta_Tactic_Grind_Arith_CommRing_Proof_0__Lean_Meta_Grind_Arith_CommRing_Null_getNoZeroDivInstIfNeeded_x3f(ptr noundef %0, ptr noundef %1, ptr noundef %2, ptr noundef %3, ptr noundef %4, ptr noundef %5, ptr noundef %6, ptr noundef %7, ptr noundef %8, ptr noundef %9, ptr noundef %10)
  %13 = ptrtoint ptr %9 to i64
  %14 = and i64 %13, 1
  %.not = icmp eq i64 %14, 0
  br i1 %.not, label %15, label %lean_dec.exit30

15:                                               ; preds = %11
  %16 = load i32, ptr %9, align 4, !tbaa !6
  %17 = icmp sgt i32 %16, 1
  br i1 %17, label %18, label %20, !prof !5

18:                                               ; preds = %15
  %19 = add nsw i32 %16, -1
  store i32 %19, ptr %9, align 4, !tbaa !6
  br label %lean_dec.exit30

20:                                               ; preds = %15
  %.not.i = icmp eq i32 %16, 0
  br i1 %.not.i, label %lean_dec.exit30, label %21

21:                                               ; preds = %20
  tail call void @lean_dec_ref_cold(ptr noundef nonnull %9) #6
  br label %lean_dec.exit30

lean_dec.exit30:                                  ; preds = %21, %20, %18, %11
  %22 = ptrtoint ptr %8 to i64
  %23 = and i64 %22, 1
  %.not49 = icmp eq i64 %23, 0
  br i1 %.not49, label %24, label %lean_dec.exit29

24:                                               ; preds = %lean_dec.exit30
  %25 = load i32, ptr %8, align 4, !tbaa !6
  %26 = icmp sgt i32 %25, 1
  br i1 %26, label %27, label %29, !prof !5

27:                                               ; preds = %24
  %28 = add nsw i32 %25, -1
  store i32 %28, ptr %8, align 4, !tbaa !6
  br label %lean_dec.exit29

29:                                               ; preds = %24
  %.not.i31 = icmp eq i32 %25, 0
  br i1 %.not.i31, label %lean_dec.exit29, label %30

30:                                               ; preds = %29
  tail call void @lean_dec_ref_cold(ptr noundef nonnull %8) #6
  br label %lean_dec.exit29

lean_dec.exit29:                                  ; preds = %30, %29, %27, %lean_dec.exit30
  %31 = ptrtoint ptr %7 to i64
  %32 = and i64 %31, 1
  %.not50 = icmp eq i64 %32, 0
  br i1 %.not50, label %33, label %lean_dec.exit28

33:                                               ; preds = %lean_dec.exit29
  %34 = load i32, ptr %7, align 4, !tbaa !6
  %35 = icmp sgt i32 %34, 1
  br i1 %35, label %36, label %38, !prof !5

36:                                               ; preds = %33
  %37 = add nsw i32 %34, -1
  store i32 %37, ptr %7, align 4, !tbaa !6
  br label %lean_dec.exit28

38:                                               ; preds = %33
  %.not.i33 = icmp eq i32 %34, 0
  br i1 %.not.i33, label %lean_dec.exit28, label %39

39:                                               ; preds = %38
  tail call void @lean_dec_ref_cold(ptr noundef nonnull %7) #6
  br label %lean_dec.exit28

lean_dec.exit28:                                  ; preds = %39, %38, %36, %lean_dec.exit29
  %40 = ptrtoint ptr %6 to i64
  %41 = and i64 %40, 1
  %.not51 = icmp eq i64 %41, 0
  br i1 %.not51, label %42, label %lean_dec.exit27

42:                                               ; preds = %lean_dec.exit28
  %43 = load i32, ptr %6, align 4, !tbaa !6
  %44 = icmp sgt i32 %43, 1
  br i1 %44, label %45, label %47, !prof !5

45:                                               ; preds = %42
  %46 = add nsw i32 %43, -1
  store i32 %46, ptr %6, align 4, !tbaa !6
  br label %lean_dec.exit27

47:                                               ; preds = %42
  %.not.i35 = icmp eq i32 %43, 0
  br i1 %.not.i35, label %lean_dec.exit27, label %48

48:                                               ; preds = %47
  tail call void @lean_dec_ref_cold(ptr noundef nonnull %6) #6
  br label %lean_dec.exit27

lean_dec.exit27:                                  ; preds = %48, %47, %45, %lean_dec.exit28
  %49 = ptrtoint ptr %5 to i64
  %50 = and i64 %49, 1
  %.not52 = icmp eq i64 %50, 0
  br i1 %.not52, label %51, label %lean_dec.exit26

51:                                               ; preds = %lean_dec.exit27
  %52 = load i32, ptr %5, align 4, !tbaa !6
  %53 = icmp sgt i32 %52, 1
  br i1 %53, label %54, label %56, !prof !5

54:                                               ; preds = %51
  %55 = add nsw i32 %52, -1
  store i32 %55, ptr %5, align 4, !tbaa !6
  br label %lean_dec.exit26

56:                                               ; preds = %51
  %.not.i37 = icmp eq i32 %52, 0
  br i1 %.not.i37, label %lean_dec.exit26, label %57

57:                                               ; preds = %56
  tail call void @lean_dec_ref_cold(ptr noundef nonnull %5) #6
  br label %lean_dec.exit26

lean_dec.exit26:                                  ; preds = %57, %56, %54, %lean_dec.exit27
  %58 = ptrtoint ptr %4 to i64
  %59 = and i64 %58, 1
  %.not53 = icmp eq i64 %59, 0
  br i1 %.not53, label %60, label %lean_dec.exit25

60:                                               ; preds = %lean_dec.exit26
  %61 = load i32, ptr %4, align 4, !tbaa !6
  %62 = icmp sgt i32 %61, 1
  br i1 %62, label %63, label %65, !prof !5

63:                                               ; preds = %60
  %64 = add nsw i32 %61, -1
  store i32 %64, ptr %4, align 4, !tbaa !6
  br label %lean_dec.exit25

65:                                               ; preds = %60
  %.not.i39 = icmp eq i32 %61, 0
  br i1 %.not.i39, label %lean_dec.exit25, label %66

66:                                               ; preds = %65
  tail call void @lean_dec_ref_cold(ptr noundef nonnull %4) #6
  br label %lean_dec.exit25

lean_dec.exit25:                                  ; preds = %66, %65, %63, %lean_dec.exit26
  %67 = ptrtoint ptr %3 to i64
  %68 = and i64 %67, 1
  %.not54 = icmp eq i64 %68, 0
  br i1 %.not54, label %69, label %lean_dec.exit24

69:                                               ; preds = %lean_dec.exit25
  %70 = load i32, ptr %3, align 4, !tbaa !6
  %71 = icmp sgt i32 %70, 1
  br i1 %71, label %72, label %74, !prof !5

72:                                               ; preds = %69
  %73 = add nsw i32 %70, -1
  store i32 %73, ptr %3, align 4, !tbaa !6
  br label %lean_dec.exit24

74:                                               ; preds = %69
  %.not.i41 = icmp eq i32 %70, 0
  br i1 %.not.i41, label %lean_dec.exit24, label %75

75:                                               ; preds = %74
  tail call void @lean_dec_ref_cold(ptr noundef nonnull %3) #6
  br label %lean_dec.exit24

lean_dec.exit24:                                  ; preds = %75, %74, %72, %lean_dec.exit25
  %76 = ptrtoint ptr %2 to i64
  %77 = and i64 %76, 1
  %.not55 = icmp eq i64 %77, 0
  br i1 %.not55, label %78, label %lean_dec.exit23

78:                                               ; preds = %lean_dec.exit24
  %79 = load i32, ptr %2, align 4, !tbaa !6
  %80 = icmp sgt i32 %79, 1
  br i1 %80, label %81, label %83, !prof !5

81:                                               ; preds = %78
  %82 = add nsw i32 %79, -1
  store i32 %82, ptr %2, align 4, !tbaa !6
  br label %lean_dec.exit23

83:                                               ; preds = %78
  %.not.i43 = icmp eq i32 %79, 0
  br i1 %.not.i43, label %lean_dec.exit23, label %84

84:                                               ; preds = %83
  tail call void @lean_dec_ref_cold(ptr noundef nonnull %2) #6
  br label %lean_dec.exit23

lean_dec.exit23:                                  ; preds = %84, %83, %81, %lean_dec.exit24
  %85 = ptrtoint ptr %1 to i64
  %86 = and i64 %85, 1
  %.not56 = icmp eq i64 %86, 0
  br i1 %.not56, label %87, label %lean_dec.exit22

87:                                               ; preds = %lean_dec.exit23
  %88 = load i32, ptr %1, align 4, !tbaa !6
  %89 = icmp sgt i32 %88, 1
  br i1 %89, label %90, label %92, !prof !5

90:                                               ; preds = %87
  %91 = add nsw i32 %88, -1
  store i32 %91, ptr %1, align 4, !tbaa !6
  br label %lean_dec.exit22

92:                                               ; preds = %87
  %.not.i45 = icmp eq i32 %88, 0
  br i1 %.not.i45, label %lean_dec.exit22, label %93

93:                                               ; preds = %92
  tail call void @lean_dec_ref_cold(ptr noundef nonnull %1) #6
  br label %lean_dec.exit22

lean_dec.exit22:                                  ; preds = %93, %92, %90, %lean_dec.exit23
  %94 = ptrtoint ptr %0 to i64
  %95 = and i64 %94, 1
  %.not57 = icmp eq i64 %95, 0
  br i1 %.not57, label %96, label %lean_dec.exit

96:                                               ; preds = %lean_dec.exit22
  %97 = load i32, ptr %0, align 4, !tbaa !6
  %98 = icmp sgt i32 %97, 1
  br i1 %98, label %99, label %101, !prof !5

99:                                               ; preds = %96
  %100 = add nsw i32 %97, -1
  store i32 %100, ptr %0, align 4, !tbaa !6
  br label %lean_dec.exit

101:                                              ; preds = %96
  %.not.i47 = icmp eq i32 %97, 0
  br i1 %.not.i47, label %lean_dec.exit, label %102

102:                                              ; preds = %101
  tail call void @lean_dec_ref_cold(ptr noundef nonnull %0) #6
  br label %lean_dec.exit

lean_dec.exit:                                    ; preds = %102, %101, %99, %lean_dec.exit22
  ret ptr %12
}